target datalayout = "e-m:e-p270:32:32-p271:32:32-p272:64:64-i64:64-i128:128-f80:128-n8:16:32:64-S128"
target triple = "x86_64-pc-linux-gnu"

%struct.Vec_Int_t_ = type { i32, i32, ptr }
%struct.Vec_Wec_t_ = type { i32, i32, ptr }

; Function Attrs: inlinehint nounwind uwtable
define internal void @Vec_WecErase(ptr noundef %0) #2 {
  %2 = alloca ptr, align 8
  %3 = alloca i32, align 4
  store ptr %0, ptr %2, align 8, !tbaa !66
  call void @llvm.lifetime.start.p0(i64 4, ptr %3) #12
  store i32 0, ptr %3, align 4, !tbaa !8
  br label %4

4:                                                ; preds = %38, %1
  %5 = load i32, ptr %3, align 4, !tbaa !8
  %6 = load ptr, ptr %2, align 8, !tbaa !66
  %7 = getelementptr inbounds nuw %struct.Vec_Wec_t_, ptr %6, i32 0, i32 0
  %8 = load i32, ptr %7, align 8, !tbaa !137
  %9 = icmp slt i32 %5, %8
  br i1 %9, label %10, label %41

10:                                               ; preds = %4
  %11 = load ptr, ptr %2, align 8, !tbaa !66
  %12 = getelementptr inbounds nuw %struct.Vec_Wec_t_, ptr %11, i32 0, i32 2
  %13 = load ptr, ptr %12, align 8, !tbaa !72
  %14 = load i32, ptr %3, align 4, !tbaa !8
  %15 = sext i32 %14 to i64
  %16 = getelementptr inbounds %struct.Vec_Int_t_, ptr %13, i64 %15
  %17 = getelementptr inbounds nuw %struct.Vec_Int_t_, ptr %16, i32 0, i32 2
  %18 = load ptr, ptr %17, align 8, !tbaa !33
  %19 = icmp ne ptr %18, null
  br i1 %19, label %20, label %36

20:                                               ; preds = %10
  %21 = load ptr, ptr %2, align 8, !tbaa !66
  %22 = getelementptr inbounds nuw %struct.Vec_Wec_t_, ptr %21, i32 0, i32 2
  %23 = load ptr, ptr %22, align 8, !tbaa !72
  %24 = load i32, ptr %3, align 4, !tbaa !8
  %25 = sext i32 %24 to i64
  %26 = getelementptr inbounds %struct.Vec_Int_t_, ptr %23, i64 %25
  %27 = getelementptr inbounds nuw %struct.Vec_Int_t_, ptr %26, i32 0, i32 2
  %28 = load ptr, ptr %27, align 8, !tbaa !33
  call void @free(ptr noundef %28) #12
  %29 = load ptr, ptr %2, align 8, !tbaa !66
  %30 = getelementptr inbounds nuw %struct.Vec_Wec_t_, ptr %29, i32 0, i32 2
  %31 = load ptr, ptr %30, align 8, !tbaa !72
  %32 = load i32, ptr %3, align 4, !tbaa !8
  %33 = sext i32 %32 to i64
  %34 = getelementptr inbounds %struct.Vec_Int_t_, ptr %31, i64 %33
  %35 = getelementptr inbounds nuw %struct.Vec_Int_t_, ptr %34, i32 0, i32 2
  store ptr null, ptr %35, align 8, !tbaa !33
  br label %37

36:                                               ; preds = %10
  br label %37

37:                                               ; preds = %36, %20
  br label %38

38:                                               ; preds = %37
  %39 = load i32, ptr %3, align 4, !tbaa !8
  %40 = add nsw i32 %39, 1
  store i32 %40, ptr %3, align 4, !tbaa !8
  br label %4, !llvm.loop !193

41:                                               ; preds = %4
  %42 = load ptr, ptr %2, align 8, !tbaa !66
  %43 = getelementptr inbounds nuw %struct.Vec_Wec_t_, ptr %42, i32 0, i32 2
  %44 = load ptr, ptr %43, align 8, !tbaa !72
  %45 = icmp ne ptr %44, null
  br i1 %45, label %46, label %52

46:                                               ; preds = %41
  %47 = load ptr, ptr %2, align 8, !tbaa !66
  %48 = getelementptr inbounds nuw %struct.Vec_Wec_t_, ptr %47, i32 0, i32 2
  %49 = load ptr, ptr %48, align 8, !tbaa !72
  call void @free(ptr noundef %49) #12
  %50 = load ptr, ptr %2, align 8, !tbaa !66
  %51 = getelementptr inbounds nuw %struct.Vec_Wec_t_, ptr %50, i32 0, i32 2
  store ptr null, ptr %51, align 8, !tbaa !72
  br label %53

52:                                               ; preds = %41
  br label %53

53:                                               ; preds = %52, %46
  %54 = load ptr, ptr %2, align 8, !tbaa !66
  %55 = getelementptr inbounds nuw %struct.Vec_Wec_t_, ptr %54, i32 0, i32 1
  store i32 0, ptr %55, align 4, !tbaa !70
  %56 = load ptr, ptr %2, align 8, !tbaa !66
  %57 = getelementptr inbounds nuw %struct.Vec_Wec_t_, ptr %56, i32 0, i32 0
  store i32 0, ptr %57, align 8, !tbaa !137
  call void @llvm.lifetime.end.p0(i64 4, ptr %3) #12
  ret void
}

; Function Attrs: inlinehint nounwind uwtable
define internal void @Vec_WecFree(ptr noundef %0) #2 {
  %2 = alloca ptr, align 8
  store ptr %0, ptr %2, align 8, !tbaa !66
  %3 = load ptr, ptr %2, align 8, !tbaa !66
  call void @Vec_WecErase(ptr noundef %3)
  %4 = load ptr, ptr %2, align 8, !tbaa !66
  %5 = icmp ne ptr %4, null
  br i1 %5, label %6, label %8

6:                                                ; preds = %1
  %7 = load ptr, ptr %2, align 8, !tbaa !66
  call void @free(ptr noundef %7) #12
  store ptr null, ptr %2, align 8, !tbaa !66
  br label %9

8:                                                ; preds = %1
  br label %9

9:                                                ; preds = %8, %6
  ret void
}